	.section	__TEXT,__text,regular,pure_instructions
	.build_version macos, 11, 0	sdk_version 11, 3
	.globl	_myThreadFun                    ## -- Begin function myThreadFun
	.p2align	4, 0x90
_myThreadFun:                           ## @myThreadFun
Lfunc_begin0:
	.file	1 "/Users/squijano/Documents/progLan2/old" "test2.c"
	.loc	1 7 0                           ## test2.c:7:0
	.cfi_sections .debug_frame
	.cfi_startproc
## %bb.0:
	pushl	%ebp
	.cfi_def_cfa_offset 8
	.cfi_offset %ebp, -8
	movl	%esp, %ebp
	.cfi_def_cfa_register %ebp
	subl	$24, %esp
	movl	8(%ebp), %eax
Ltmp0:
	.loc	1 8 5 prologue_end              ## test2.c:8:5
	movl	$1, (%esp)
	movl	%eax, -4(%ebp)                  ## 4-byte Spill
	calll	_sleep$UNIX2003
	.loc	1 9 5                           ## test2.c:9:5
	## InlineAsm Start
	##------ in thread -----
	## InlineAsm End
	xorl	%ecx, %ecx
	movl	%eax, -8(%ebp)                  ## 4-byte Spill
	.loc	1 10 5                          ## test2.c:10:5
	movl	%ecx, %eax
	addl	$24, %esp
	popl	%ebp
	retl
Ltmp1:
Lfunc_end0:
	.cfi_endproc
                                        ## -- End function
	.globl	_main                           ## -- Begin function main
	.p2align	4, 0x90
_main:                                  ## @main
Lfunc_begin1:
	.loc	1 14 0                          ## test2.c:14:0
	.cfi_startproc
## %bb.0:
	pushl	%ebp
	.cfi_def_cfa_offset 8
	.cfi_offset %ebp, -8
	movl	%esp, %ebp
	.cfi_def_cfa_register %ebp
	subl	$40, %esp
	calll	L1$pb
L1$pb:
	popl	%eax
	movl	$0, -4(%ebp)
Ltmp2:
	.loc	1 16 5 prologue_end             ## test2.c:16:5
	## InlineAsm Start
	##------ thread init -----
	## InlineAsm End
	.loc	1 17 5                          ## test2.c:17:5
	leal	_myThreadFun-L1$pb(%eax), %eax
	movl	%esp, %ecx
	movl	%eax, 8(%ecx)
	leal	-8(%ebp), %eax
	movl	%eax, (%ecx)
	movl	$0, 12(%ecx)
	movl	$0, 4(%ecx)
	calll	_pthread_create
	.loc	1 18 18                         ## test2.c:18:18
	movl	-8(%ebp), %ecx
	.loc	1 18 5 is_stmt 0                ## test2.c:18:5
	movl	%esp, %edx
	movl	%ecx, (%edx)
	movl	$0, 4(%edx)
	movl	%eax, -12(%ebp)                 ## 4-byte Spill
	calll	_pthread_join$UNIX2003
	.loc	1 19 5 is_stmt 1                ## test2.c:19:5
	movl	%esp, %ecx
	movl	$0, (%ecx)
	movl	%eax, -16(%ebp)                 ## 4-byte Spill
	calll	_exit
Ltmp3:
Lfunc_end1:
	.cfi_endproc
                                        ## -- End function
	.file	2 "/Applications/Xcode.app/Contents/Developer/Platforms/MacOSX.platform/Developer/SDKs/MacOSX.sdk/usr/include/sys/_pthread" "_pthread_types.h"
	.file	3 "/Applications/Xcode.app/Contents/Developer/Platforms/MacOSX.platform/Developer/SDKs/MacOSX.sdk/usr/include/sys/_pthread" "_pthread_t.h"